target datalayout = "e-m:e-p270:32:32-p271:32:32-p272:64:64-i64:64-i128:128-f80:128-n8:16:32:64-S128"
target triple = "x86_64-pc-linux-gnu"

@bio_err = external global ptr, align 8
@.str.210 = private unnamed_addr constant [22 x i8] c"parameter error \22%s\22\0A\00", align 1

; Function Attrs: inlinehint nounwind uwtable
define internal ptr @ossl_check_const_OPENSSL_STRING_sk_type(ptr noundef %0) #5 {
  %2 = alloca ptr, align 8
  store ptr %0, ptr %2, align 8, !tbaa !84
  %3 = load ptr, ptr %2, align 8, !tbaa !84
  ret ptr %3
}

; Function Attrs: nounwind uwtable
define internal i32 @do_x509_init(ptr noundef %0, ptr noundef %1) #0 {
  %3 = alloca i32, align 4
  %4 = alloca ptr, align 8
  %5 = alloca ptr, align 8
  %6 = alloca i32, align 4
  %7 = alloca i32, align 4
  %8 = alloca ptr, align 8
  store ptr %0, ptr %4, align 8, !tbaa !37
  store ptr %1, ptr %5, align 8, !tbaa !84
  call void @llvm.lifetime.start.p0(i64 4, ptr %6) #12
  %9 = load ptr, ptr %5, align 8, !tbaa !84
  %10 = icmp eq ptr %9, null
  br i1 %10, label %11, label %12

11:                                               ; preds = %2
  store i32 1, ptr %3, align 4
  store i32 1, ptr %7, align 4
  br label %41

12:                                               ; preds = %2
  store i32 0, ptr %6, align 4, !tbaa !25
  br label %13

13:                                               ; preds = %37, %12
  %14 = load i32, ptr %6, align 4, !tbaa !25
  %15 = load ptr, ptr %5, align 8, !tbaa !84
  %16 = call ptr @ossl_check_const_OPENSSL_STRING_sk_type(ptr noundef %15)
  %17 = call i32 @OPENSSL_sk_num(ptr noundef %16)
  %18 = icmp slt i32 %14, %17
  br i1 %18, label %19, label %40

19:                                               ; preds = %13
  call void @llvm.lifetime.start.p0(i64 8, ptr %8) #12
  %20 = load ptr, ptr %5, align 8, !tbaa !84
  %21 = call ptr @ossl_check_const_OPENSSL_STRING_sk_type(ptr noundef %20)
  %22 = load i32, ptr %6, align 4, !tbaa !25
  %23 = call ptr @OPENSSL_sk_value(ptr noundef %21, i32 noundef %22)
  store ptr %23, ptr %8, align 8, !tbaa !9
  %24 = load ptr, ptr %4, align 8, !tbaa !37
  %25 = load ptr, ptr %8, align 8, !tbaa !9
  %26 = call i32 @x509_ctrl_string(ptr noundef %24, ptr noundef %25)
  %27 = icmp sle i32 %26, 0
  br i1 %27, label %28, label %33

28:                                               ; preds = %19
  %29 = load ptr, ptr @bio_err, align 8, !tbaa !35
  %30 = load ptr, ptr %8, align 8, !tbaa !9
  %31 = call i32 (ptr, ptr, ...) @BIO_printf(ptr noundef %29, ptr noundef @.str.210, ptr noundef %30)
  %32 = load ptr, ptr @bio_err, align 8, !tbaa !35
  call void @ERR_print_errors(ptr noundef %32)
  store i32 0, ptr %3, align 4
  store i32 1, ptr %7, align 4
  br label %34

33:                                               ; preds = %19
  store i32 0, ptr %7, align 4
  br label %34

34:                                               ; preds = %33, %28
  call void @llvm.lifetime.end.p0(i64 8, ptr %8) #12
  %35 = load i32, ptr %7, align 4
  switch i32 %35, label %41 [
    i32 0, label %36
  ]

36:                                               ; preds = %34
  br label %37

37:                                               ; preds = %36
  %38 = load i32, ptr %6, align 4, !tbaa !25
  %39 = add nsw i32 %38, 1
  store i32 %39, ptr %6, align 4, !tbaa !25
  br label %13, !llvm.loop !159

40:                                               ; preds = %13
  store i32 1, ptr %3, align 4
  store i32 1, ptr %7, align 4
  br label %41

41:                                               ; preds = %40, %34, %11
  call void @llvm.lifetime.end.p0(i64 4, ptr %6) #12
  %42 = load i32, ptr %3, align 4
  ret i32 %42
}

; Function Attrs: nounwind uwtable
define dso_local i32 @do_X509_verify(ptr noundef %0, ptr noundef %1, ptr noundef %2) #0 {
  %4 = alloca ptr, align 8
  %5 = alloca ptr, align 8
  %6 = alloca ptr, align 8
  %7 = alloca i32, align 4
  store ptr %0, ptr %4, align 8, !tbaa !37
  store ptr %1, ptr %5, align 8, !tbaa !67
  store ptr %2, ptr %6, align 8, !tbaa !84
  call void @llvm.lifetime.start.p0(i64 4, ptr %7) #12
  store i32 0, ptr %7, align 4, !tbaa !25
  %8 = load ptr, ptr %4, align 8, !tbaa !37
  %9 = load ptr, ptr %6, align 8, !tbaa !84
  %10 = call i32 @do_x509_init(ptr noundef %8, ptr noundef %9)
  %11 = icmp sgt i32 %10, 0
  br i1 %11, label %12, label %16

12:                                               ; preds = %3
  %13 = load ptr, ptr %4, align 8, !tbaa !37
  %14 = load ptr, ptr %5, align 8, !tbaa !67
  %15 = call i32 @X509_verify(ptr noundef %13, ptr noundef %14)
  store i32 %15, ptr %7, align 4, !tbaa !25
  br label %17

16:                                               ; preds = %3
  store i32 -1, ptr %7, align 4, !tbaa !25
  br label %17

17:                                               ; preds = %16, %12
  %18 = load i32, ptr %7, align 4, !tbaa !25
  call void @llvm.lifetime.end.p0(i64 4, ptr %7) #12
  ret i32 %18
}