; Function Attrs: nounwind uwtable
define dso_local i32 @do_X509_verify(ptr noundef %0, ptr noundef %1, ptr noundef %2) local_unnamed_addr #0 {
  %4 = icmp eq ptr %2, null
  br i1 %4, label %.loopexit, label %.preheader.i

.preheader.i:                                     ; preds = %3
  %5 = tail call i32 @OPENSSL_sk_num(ptr noundef nonnull %2) #27
  %6 = icmp sgt i32 %5, 0
  br i1 %6, label %.critedge.i, label %.loopexit

7:                                                ; preds = %.critedge.i
  %8 = add nuw nsw i32 %.01113.i, 1
  %9 = tail call i32 @OPENSSL_sk_num(ptr noundef nonnull %2) #27
  %10 = icmp slt i32 %8, %9
  br i1 %10, label %.critedge.i, label %.loopexit, !llvm.loop !95

.critedge.i:                                      ; preds = %.preheader.i, %7
  %.01113.i = phi i32 [ %8, %7 ], [ 0, %.preheader.i ]
  %11 = tail call ptr @OPENSSL_sk_value(ptr noundef nonnull %2, i32 noundef %.01113.i) #27
  %12 = tail call i32 @x509_ctrl_string(ptr noundef %0, ptr noundef %11) #27
  %13 = icmp sgt i32 %12, 0
  br i1 %13, label %7, label %do_x509_init.exit

do_x509_init.exit:                                ; preds = %.critedge.i
  %14 = load ptr, ptr @bio_err, align 8, !tbaa !26
  %15 = tail call i32 (ptr, ptr, ...) @BIO_printf(ptr noundef %14, ptr noundef nonnull @.str.210, ptr noundef %11) #27
  %16 = load ptr, ptr @bio_err, align 8, !tbaa !26
  tail call void @ERR_print_errors(ptr noundef %16) #27
  br label %18

.loopexit:                                        ; preds = %7, %3, %.preheader.i
  %17 = tail call i32 @X509_verify(ptr noundef %0, ptr noundef %1) #27
  br label %18

18:                                               ; preds = %do_x509_init.exit, %.loopexit
  %.0 = phi i32 [ %17, %.loopexit ], [ -1, %do_x509_init.exit ]
  ret i32 %.0
}